; ModuleID = 'source-C-CXX/59/624.c'
source_filename = "source-C-CXX/59/624.c"
target datalayout = "e-m:e-p270:32:32-p271:32:32-p272:64:64-i64:64-f80:128-n8:16:32:64-S128"
target triple = "x86_64-pc-linux-gnu"

@.str = private unnamed_addr constant [3 x i8] c"%d\00", align 1
@.str.1 = private unnamed_addr constant [6 x i8] c"%d %d\00", align 1
@.str.2 = private unnamed_addr constant [7 x i8] c"\0A%d %d\00", align 1
@.str.3 = private unnamed_addr constant [6 x i8] c"empty\00", align 1

; Function Attrs: nofree nounwind sspstrong uwtable
define dso_local i32 @ss(i32 %0) local_unnamed_addr #0 {
  %2 = sitofp i32 %0 to double
  %3 = tail call double @sqrt(double %2) #4
  %4 = fptosi double %3 to i32
  %5 = icmp slt i32 %4, 2
  %6 = add i32 %4, 1
  br i1 %5, label %14, label %7

7:                                                ; preds = %1, %11
  %8 = phi i32 [ %12, %11 ], [ 2, %1 ]
  %9 = srem i32 %0, %8
  %10 = icmp eq i32 %9, 0
  br i1 %10, label %14, label %11

11:                                               ; preds = %7
  %12 = add nuw i32 %8, 1
  %13 = icmp eq i32 %8, %4
  br i1 %13, label %14, label %7, !llvm.loop !5

14:                                               ; preds = %11, %7, %1
  %15 = phi i32 [ 2, %1 ], [ %8, %7 ], [ %6, %11 ]
  %16 = icmp eq i32 %15, %6
  %17 = zext i1 %16 to i32
  ret i32 %17
}

; Function Attrs: argmemonly mustprogress nofree nosync nounwind willreturn
declare void @llvm.lifetime.start.p0i8(i64 immarg, i8* nocapture) #1

; Function Attrs: mustprogress nofree nounwind willreturn
declare double @sqrt(double) local_unnamed_addr #2

; Function Attrs: argmemonly mustprogress nofree nosync nounwind willreturn
declare void @llvm.lifetime.end.p0i8(i64 immarg, i8* nocapture) #1

; Function Attrs: nofree nounwind sspstrong uwtable
define dso_local i32 @main() local_unnamed_addr #0 {
  %1 = alloca i32, align 4
  %2 = bitcast i32* %1 to i8*
  call void @llvm.lifetime.start.p0i8(i64 4, i8* nonnull %2) #4
  %3 = call i32 (i8*, ...) @__isoc99_scanf(i8* getelementptr inbounds ([3 x i8], [3 x i8]* @.str, i64 0, i64 0), i32* nonnull %1)
  %4 = load i32, i32* %1, align 4, !tbaa !7
  %5 = icmp slt i32 %4, 4
  br i1 %5, label %54, label %6

6:                                                ; preds = %0, %46
  %7 = phi i32 [ %47, %46 ], [ 0, %0 ]
  %8 = phi i32 [ %48, %46 ], [ 2, %0 ]
  %9 = sitofp i32 %8 to double
  %10 = call double @sqrt(double %9) #4
  %11 = fptosi double %10 to i32
  %12 = icmp slt i32 %11, 2
  %13 = add i32 %11, 1
  br i1 %12, label %21, label %14

14:                                               ; preds = %6, %18
  %15 = phi i32 [ %19, %18 ], [ 2, %6 ]
  %16 = urem i32 %8, %15
  %17 = icmp eq i32 %16, 0
  br i1 %17, label %21, label %18

18:                                               ; preds = %14
  %19 = add nuw i32 %15, 1
  %20 = icmp eq i32 %15, %11
  br i1 %20, label %24, label %14, !llvm.loop !5

21:                                               ; preds = %14, %6
  %22 = phi i32 [ 2, %6 ], [ %15, %14 ]
  %23 = icmp eq i32 %22, %13
  br i1 %23, label %24, label %46

24:                                               ; preds = %18, %21
  %25 = add nuw nsw i32 %8, 2
  %26 = sitofp i32 %25 to double
  %27 = call double @sqrt(double %26) #4
  %28 = fptosi double %27 to i32
  %29 = icmp slt i32 %28, 2
  %30 = add i32 %28, 1
  br i1 %29, label %38, label %31

31:                                               ; preds = %24, %35
  %32 = phi i32 [ %36, %35 ], [ 2, %24 ]
  %33 = srem i32 %25, %32
  %34 = icmp eq i32 %33, 0
  br i1 %34, label %38, label %35

35:                                               ; preds = %31
  %36 = add nuw i32 %32, 1
  %37 = icmp eq i32 %32, %28
  br i1 %37, label %41, label %31, !llvm.loop !5

38:                                               ; preds = %31, %24
  %39 = phi i32 [ 2, %24 ], [ %32, %31 ]
  %40 = icmp eq i32 %39, %30
  br i1 %40, label %41, label %46

41:                                               ; preds = %35, %38
  %42 = icmp eq i32 %7, 0
  %43 = add nsw i32 %7, 1
  %44 = select i1 %42, i8* getelementptr inbounds ([6 x i8], [6 x i8]* @.str.1, i64 0, i64 0), i8* getelementptr inbounds ([7 x i8], [7 x i8]* @.str.2, i64 0, i64 0)
  %45 = call i32 (i8*, ...) @printf(i8* nonnull dereferenceable(1) %44, i32 %8, i32 %25)
  br label %46

46:                                               ; preds = %41, %21, %38
  %47 = phi i32 [ %7, %38 ], [ %7, %21 ], [ %43, %41 ]
  %48 = add nuw nsw i32 %8, 1
  %49 = load i32, i32* %1, align 4, !tbaa !7
  %50 = add nsw i32 %49, -2
  %51 = icmp slt i32 %8, %50
  br i1 %51, label %6, label %52, !llvm.loop !11

52:                                               ; preds = %46
  %53 = icmp eq i32 %47, 0
  br i1 %53, label %54, label %56

54:                                               ; preds = %0, %52
  %55 = call i32 (i8*, ...) @printf(i8* nonnull dereferenceable(1) getelementptr inbounds ([6 x i8], [6 x i8]* @.str.3, i64 0, i64 0))
  br label %56

56:                                               ; preds = %54, %52
  call void @llvm.lifetime.end.p0i8(i64 4, i8* nonnull %2) #4
  ret i32 0
}

; Function Attrs: nofree nounwind
declare noundef i32 @__isoc99_scanf(i8* nocapture noundef readonly, ...) local_unnamed_addr #3

; Function Attrs: nofree nounwind
declare noundef i32 @printf(i8* nocapture noundef readonly, ...) local_unnamed_addr #3


!llvm.module.flags = !{!0, !1, !2, !3}
!llvm.ident = !{!4}

!0 = !{i32 1, !"wchar_size", i32 4}
!1 = !{i32 7, !"PIC Level", i32 2}
!2 = !{i32 7, !"PIE Level", i32 2}
!3 = !{i32 7, !"uwtable", i32 1}
!4 = !{!"clang version 13.0.0"}
!5 = distinct !{!5, !6}
!6 = !{!"llvm.loop.mustprogress"}
!7 = !{!8, !8, i64 0}
!8 = !{!"int", !9, i64 0}
!9 = !{!"omnipotent char", !10, i64 0}
!10 = !{!"Simple C/C++ TBAA"}
!11 = distinct !{!11, !6}
